target datalayout = "e-m:e-p270:32:32-p271:32:32-p272:64:64-i64:64-i128:128-f80:128-n8:16:32:64-S128"
target triple = "x86_64-pc-linux-gnu"

%struct.TCGContext = type { ptr, ptr, ptr, ptr, ptr, i32, i32, i32, i32, i32, i32, i32, i8, i8, i8, i32, i32, i64, i64, i64, ptr, ptr, ptr, ptr, ptr, i64, ptr, ptr, ptr, ptr, %struct.anon, ptr, ptr, ptr, ptr, ptr, [6 x ptr], [6 x %struct.TCGTempSet], [512 x %struct.TCGTemp], %union.anon, %union.anon, %struct.anon.0, ptr, [32 x ptr], [512 x i16], ptr, [1 x %struct.__jmp_buf_tag] }
%struct.anon = type { ptr, ptr }
%struct.TCGTempSet = type { [8 x i64] }
%struct.TCGTemp = type { i64, i64, ptr, i64, ptr, i64, ptr }
%union.anon = type { %struct.QTailQLink }
%struct.QTailQLink = type { ptr, ptr }
%struct.anon.0 = type { ptr, ptr }
%struct.__jmp_buf_tag = type { [8 x i64], i32, %struct.__sigset_t }
%struct.__sigset_t = type { [16 x i64] }
%struct.TCGOpDef = type { ptr, i8, i8, i8, i8, i8 }
%struct.TCGOp = type { i32, i32, %union.anon.5, [2 x i32], [0 x i64] }
%union.anon.5 = type { %struct.QTailQLink }

@tcg_op_defs = external constant [0 x %struct.TCGOpDef], align 8

; Function Attrs: inlinehint nounwind sspstrong uwtable
define internal ptr @arg_temp(i64 noundef %0) #3 {
  %2 = alloca i64, align 8
  store i64 %0, ptr %2, align 8
  %3 = load i64, ptr %2, align 8
  %4 = inttoptr i64 %3 to ptr
  ret ptr %4
}

; Function Attrs: noinline nounwind sspstrong uwtable
define internal void @liveness_pass_0(ptr noundef %0) #14 {
  %2 = alloca ptr, align 8
  %3 = alloca ptr, align 8
  %4 = alloca i32, align 4
  %5 = alloca ptr, align 8
  %6 = alloca ptr, align 8
  %7 = alloca i32, align 4
  %8 = alloca ptr, align 8
  %9 = alloca i32, align 4
  %10 = alloca i32, align 4
  %11 = alloca i32, align 4
  %12 = alloca i32, align 4
  %13 = alloca ptr, align 8
  %14 = alloca i32, align 4
  %15 = alloca ptr, align 8
  store ptr %0, ptr %2, align 8
  call void @llvm.lifetime.start.p0(i64 8, ptr %3) #19
  store ptr inttoptr (i64 -1 to ptr), ptr %3, align 8
  call void @llvm.lifetime.start.p0(i64 4, ptr %4) #19
  %16 = load ptr, ptr %2, align 8
  %17 = getelementptr inbounds nuw %struct.TCGContext, ptr %16, i32 0, i32 7
  %18 = load i32, ptr %17, align 8
  store i32 %18, ptr %4, align 4
  call void @llvm.lifetime.start.p0(i64 8, ptr %5) #19
  store ptr null, ptr %5, align 8, !annotation !4
  call void @llvm.lifetime.start.p0(i64 8, ptr %6) #19
  store ptr null, ptr %6, align 8, !annotation !4
  call void @llvm.lifetime.start.p0(i64 4, ptr %7) #19
  %19 = load ptr, ptr %2, align 8
  %20 = getelementptr inbounds nuw %struct.TCGContext, ptr %19, i32 0, i32 6
  %21 = load i32, ptr %20, align 4
  store i32 %21, ptr %7, align 4
  br label %22

22:                                               ; preds = %34, %1
  %23 = load i32, ptr %7, align 4
  %24 = load i32, ptr %4, align 4
  %25 = icmp slt i32 %23, %24
  br i1 %25, label %27, label %26

26:                                               ; preds = %22
  call void @llvm.lifetime.end.p0(i64 4, ptr %7) #19
  br label %37

27:                                               ; preds = %22
  %28 = load ptr, ptr %2, align 8
  %29 = getelementptr inbounds nuw %struct.TCGContext, ptr %28, i32 0, i32 38
  %30 = load i32, ptr %7, align 4
  %31 = sext i32 %30 to i64
  %32 = getelementptr inbounds [512 x %struct.TCGTemp], ptr %29, i64 0, i64 %31
  %33 = getelementptr inbounds nuw %struct.TCGTemp, ptr %32, i32 0, i32 6
  store ptr null, ptr %33, align 8
  br label %34

34:                                               ; preds = %27
  %35 = load i32, ptr %7, align 4
  %36 = add i32 %35, 1
  store i32 %36, ptr %7, align 4
  br label %22, !llvm.loop !41

37:                                               ; preds = %26
  %38 = load ptr, ptr %2, align 8
  %39 = getelementptr inbounds nuw %struct.TCGContext, ptr %38, i32 0, i32 39
  %40 = load ptr, ptr %39, align 8
  store ptr %40, ptr %6, align 8
  %41 = load ptr, ptr %2, align 8
  %42 = getelementptr inbounds nuw %struct.TCGContext, ptr %41, i32 0, i32 39
  %43 = load ptr, ptr %42, align 8
  store ptr %43, ptr %5, align 8
  br label %44

44:                                               ; preds = %129, %37
  %45 = load ptr, ptr %5, align 8
  %46 = icmp ne ptr %45, null
  br i1 %46, label %47, label %133

47:                                               ; preds = %44
  call void @llvm.lifetime.start.p0(i64 8, ptr %8) #19
  store ptr null, ptr %8, align 8, !annotation !4
  call void @llvm.lifetime.start.p0(i64 4, ptr %9) #19
  store i32 0, ptr %9, align 4, !annotation !4
  call void @llvm.lifetime.start.p0(i64 4, ptr %10) #19
  store i32 0, ptr %10, align 4, !annotation !4
  %48 = load ptr, ptr %5, align 8
  %49 = load i32, ptr %48, align 8
  %50 = and i32 %49, 255
  switch i32 %50, label %62 [
    i32 1, label %51
    i32 0, label %53
    i32 2, label %54
  ]

51:                                               ; preds = %47
  %52 = load ptr, ptr %5, align 8
  store ptr %52, ptr %6, align 8
  store i32 7, ptr %11, align 4
  br label %126

53:                                               ; preds = %47
  store i32 7, ptr %11, align 4
  br label %126

54:                                               ; preds = %47
  %55 = load ptr, ptr %5, align 8
  %56 = load i32, ptr %55, align 8
  %57 = lshr i32 %56, 24
  store i32 %57, ptr %9, align 4
  %58 = load ptr, ptr %5, align 8
  %59 = load i32, ptr %58, align 8
  %60 = lshr i32 %59, 16
  %61 = and i32 %60, 255
  store i32 %61, ptr %10, align 4
  br label %76

62:                                               ; preds = %47
  %63 = load ptr, ptr %5, align 8
  %64 = load i32, ptr %63, align 8
  %65 = and i32 %64, 255
  %66 = zext i32 %65 to i64
  %67 = getelementptr inbounds nuw [0 x %struct.TCGOpDef], ptr @tcg_op_defs, i64 0, i64 %66
  store ptr %67, ptr %8, align 8
  %68 = load ptr, ptr %8, align 8
  %69 = getelementptr inbounds nuw %struct.TCGOpDef, ptr %68, i32 0, i32 1
  %70 = load i8, ptr %69, align 8
  %71 = zext i8 %70 to i32
  store i32 %71, ptr %9, align 4
  %72 = load ptr, ptr %8, align 8
  %73 = getelementptr inbounds nuw %struct.TCGOpDef, ptr %72, i32 0, i32 2
  %74 = load i8, ptr %73, align 1
  %75 = zext i8 %74 to i32
  store i32 %75, ptr %10, align 4
  br label %76

76:                                               ; preds = %62, %54
  call void @llvm.lifetime.start.p0(i64 4, ptr %12) #19
  store i32 0, ptr %12, align 4
  br label %77

77:                                               ; preds = %122, %76
  %78 = load i32, ptr %12, align 4
  %79 = load i32, ptr %9, align 4
  %80 = load i32, ptr %10, align 4
  %81 = add i32 %79, %80
  %82 = icmp slt i32 %78, %81
  br i1 %82, label %84, label %83

83:                                               ; preds = %77
  store i32 9, ptr %11, align 4
  call void @llvm.lifetime.end.p0(i64 4, ptr %12) #19
  br label %125

84:                                               ; preds = %77
  call void @llvm.lifetime.start.p0(i64 8, ptr %13) #19
  %85 = load ptr, ptr %5, align 8
  %86 = getelementptr inbounds nuw %struct.TCGOp, ptr %85, i32 0, i32 4
  %87 = load i32, ptr %12, align 4
  %88 = sext i32 %87 to i64
  %89 = getelementptr inbounds [0 x i64], ptr %86, i64 0, i64 %88
  %90 = load i64, ptr %89, align 8
  %91 = call ptr @arg_temp(i64 noundef %90)
  store ptr %91, ptr %13, align 8
  %92 = load ptr, ptr %13, align 8
  %93 = load i64, ptr %92, align 8
  %94 = lshr i64 %93, 32
  %95 = and i64 %94, 7
  %96 = trunc i64 %95 to i32
  %97 = icmp ne i32 %96, 1
  br i1 %97, label %98, label %99

98:                                               ; preds = %84
  store i32 11, ptr %11, align 4
  br label %119

99:                                               ; preds = %84
  %100 = load ptr, ptr %13, align 8
  %101 = getelementptr inbounds nuw %struct.TCGTemp, ptr %100, i32 0, i32 6
  %102 = load ptr, ptr %101, align 8
  %103 = icmp eq ptr %102, null
  br i1 %103, label %104, label %108

104:                                              ; preds = %99
  %105 = load ptr, ptr %6, align 8
  %106 = load ptr, ptr %13, align 8
  %107 = getelementptr inbounds nuw %struct.TCGTemp, ptr %106, i32 0, i32 6
  store ptr %105, ptr %107, align 8
  br label %118

108:                                              ; preds = %99
  %109 = load ptr, ptr %13, align 8
  %110 = getelementptr inbounds nuw %struct.TCGTemp, ptr %109, i32 0, i32 6
  %111 = load ptr, ptr %110, align 8
  %112 = load ptr, ptr %6, align 8
  %113 = icmp ne ptr %111, %112
  br i1 %113, label %114, label %117

114:                                              ; preds = %108
  %115 = load ptr, ptr %13, align 8
  %116 = getelementptr inbounds nuw %struct.TCGTemp, ptr %115, i32 0, i32 6
  store ptr inttoptr (i64 -1 to ptr), ptr %116, align 8
  br label %117

117:                                              ; preds = %114, %108
  br label %118

118:                                              ; preds = %117, %104
  store i32 0, ptr %11, align 4
  br label %119

119:                                              ; preds = %118, %98
  call void @llvm.lifetime.end.p0(i64 8, ptr %13) #19
  %120 = load i32, ptr %11, align 4
  switch i32 %120, label %169 [
    i32 0, label %121
    i32 11, label %122
  ]

121:                                              ; preds = %119
  br label %122

122:                                              ; preds = %121, %119
  %123 = load i32, ptr %12, align 4
  %124 = add i32 %123, 1
  store i32 %124, ptr %12, align 4
  br label %77, !llvm.loop !42

125:                                              ; preds = %83
  store i32 0, ptr %11, align 4
  br label %126

126:                                              ; preds = %125, %53, %51
  call void @llvm.lifetime.end.p0(i64 4, ptr %10) #19
  call void @llvm.lifetime.end.p0(i64 4, ptr %9) #19
  call void @llvm.lifetime.end.p0(i64 8, ptr %8) #19
  %127 = load i32, ptr %11, align 4
  switch i32 %127, label %169 [
    i32 0, label %128
    i32 7, label %129
  ]

128:                                              ; preds = %126
  br label %129

129:                                              ; preds = %128, %126
  %130 = load ptr, ptr %5, align 8
  %131 = getelementptr inbounds nuw %struct.TCGOp, ptr %130, i32 0, i32 2
  %132 = load ptr, ptr %131, align 8
  store ptr %132, ptr %5, align 8
  br label %44, !llvm.loop !43

133:                                              ; preds = %44
  call void @llvm.lifetime.start.p0(i64 4, ptr %14) #19
  %134 = load ptr, ptr %2, align 8
  %135 = getelementptr inbounds nuw %struct.TCGContext, ptr %134, i32 0, i32 6
  %136 = load i32, ptr %135, align 4
  store i32 %136, ptr %14, align 4
  br label %137

137:                                              ; preds = %165, %133
  %138 = load i32, ptr %14, align 4
  %139 = load i32, ptr %4, align 4
  %140 = icmp slt i32 %138, %139
  br i1 %140, label %142, label %141

141:                                              ; preds = %137
  store i32 12, ptr %11, align 4
  call void @llvm.lifetime.end.p0(i64 4, ptr %14) #19
  br label %168

142:                                              ; preds = %137
  call void @llvm.lifetime.start.p0(i64 8, ptr %15) #19
  %143 = load ptr, ptr %2, align 8
  %144 = getelementptr inbounds nuw %struct.TCGContext, ptr %143, i32 0, i32 38
  %145 = load i32, ptr %14, align 4
  %146 = sext i32 %145 to i64
  %147 = getelementptr inbounds [512 x %struct.TCGTemp], ptr %144, i64 0, i64 %146
  store ptr %147, ptr %15, align 8
  %148 = load ptr, ptr %15, align 8
  %149 = load i64, ptr %148, align 8
  %150 = lshr i64 %149, 32
  %151 = and i64 %150, 7
  %152 = trunc i64 %151 to i32
  %153 = icmp eq i32 %152, 1
  br i1 %153, label %154, label %164

154:                                              ; preds = %142
  %155 = load ptr, ptr %15, align 8
  %156 = getelementptr inbounds nuw %struct.TCGTemp, ptr %155, i32 0, i32 6
  %157 = load ptr, ptr %156, align 8
  %158 = icmp ne ptr %157, inttoptr (i64 -1 to ptr)
  br i1 %158, label %159, label %164

159:                                              ; preds = %154
  %160 = load ptr, ptr %15, align 8
  %161 = load i64, ptr %160, align 8
  %162 = and i64 %161, -30064771073
  %163 = or i64 %162, 0
  store i64 %163, ptr %160, align 8
  br label %164

164:                                              ; preds = %159, %154, %142
  call void @llvm.lifetime.end.p0(i64 8, ptr %15) #19
  br label %165

165:                                              ; preds = %164
  %166 = load i32, ptr %14, align 4
  %167 = add i32 %166, 1
  store i32 %167, ptr %14, align 4
  br label %137, !llvm.loop !44

168:                                              ; preds = %141
  call void @llvm.lifetime.end.p0(i64 8, ptr %6) #19
  call void @llvm.lifetime.end.p0(i64 8, ptr %5) #19
  call void @llvm.lifetime.end.p0(i64 4, ptr %4) #19
  call void @llvm.lifetime.end.p0(i64 8, ptr %3) #19
  ret void

169:                                              ; preds = %126, %119
  unreachable
}