; Function Attrs: nofree noinline norecurse nosync nounwind sspstrong memory(readwrite, inaccessiblemem: none) uwtable
define internal fastcc void @liveness_pass_0(ptr noundef captures(none) %0) unnamed_addr #17 {
  %2 = getelementptr inbounds nuw i8, ptr %0, i64 48
  %3 = load i32, ptr %2, align 8
  %4 = getelementptr inbounds nuw i8, ptr %0, i64 44
  %5 = load i32, ptr %4, align 4
  %6 = icmp slt i32 %5, %3
  br i1 %6, label %.lr.ph, label %._crit_edge

.lr.ph:                                           ; preds = %1
  %7 = getelementptr i8, ptr %0, i64 720
  %8 = sext i32 %5 to i64
  %wide.trip.count = sext i32 %3 to i64
  br label %11

._crit_edge:                                      ; preds = %11, %1
  %9 = getelementptr inbounds nuw i8, ptr %0, i64 29344
  %10 = load ptr, ptr %9, align 8
  %.not54 = icmp eq ptr %10, null
  br i1 %.not54, label %._crit_edge60, label %.lr.ph59

11:                                               ; preds = %.lr.ph, %11
  %indvars.iv = phi i64 [ %8, %.lr.ph ], [ %indvars.iv.next, %11 ]
  %.idx = mul nsw i64 %indvars.iv, 56
  %12 = getelementptr i8, ptr %7, i64 %.idx
  store ptr null, ptr %12, align 8
  %indvars.iv.next = add nsw i64 %indvars.iv, 1
  %exitcond.not = icmp eq i64 %indvars.iv.next, %wide.trip.count
  br i1 %exitcond.not, label %._crit_edge, label %11, !llvm.loop !56

.lr.ph59:                                         ; preds = %._crit_edge, %.loopexit
  %.056 = phi ptr [ %45, %.loopexit ], [ %10, %._crit_edge ]
  %.04055 = phi ptr [ %.1, %.loopexit ], [ %10, %._crit_edge ]
  %13 = load i32, ptr %.056, align 8
  %trunc = trunc i32 %13 to i8
  switch i8 %trunc, label %19 [
    i8 1, label %.loopexit
    i8 0, label %14
    i8 2, label %15
  ]

14:                                               ; preds = %.lr.ph59
  br label %.loopexit

15:                                               ; preds = %.lr.ph59
  %16 = lshr i32 %13, 24
  %17 = lshr i32 %13, 16
  %18 = and i32 %17, 255
  br label %29

19:                                               ; preds = %.lr.ph59
  %20 = and i32 %13, 255
  %21 = zext nneg i32 %20 to i64
  %22 = getelementptr inbounds nuw [0 x %struct.TCGOpDef], ptr @tcg_op_defs, i64 0, i64 %21
  %23 = getelementptr inbounds nuw i8, ptr %22, i64 8
  %24 = load i8, ptr %23, align 8
  %25 = zext i8 %24 to i32
  %26 = getelementptr inbounds nuw i8, ptr %22, i64 9
  %27 = load i8, ptr %26, align 1
  %28 = zext i8 %27 to i32
  br label %29

29:                                               ; preds = %19, %15
  %.043 = phi i32 [ %25, %19 ], [ %16, %15 ]
  %.042 = phi i32 [ %28, %19 ], [ %18, %15 ]
  %30 = add nuw nsw i32 %.042, %.043
  %.not65 = icmp eq i32 %30, 0
  br i1 %.not65, label %.loopexit, label %.lr.ph53

.lr.ph53:                                         ; preds = %29
  %31 = getelementptr inbounds nuw i8, ptr %.056, i64 32
  %wide.trip.count70 = zext nneg i32 %30 to i64
  br label %32

32:                                               ; preds = %.lr.ph53, %43
  %indvars.iv67 = phi i64 [ 0, %.lr.ph53 ], [ %indvars.iv.next68, %43 ]
  %33 = getelementptr inbounds nuw [0 x i64], ptr %31, i64 0, i64 %indvars.iv67
  %34 = load i64, ptr %33, align 8
  %35 = inttoptr i64 %34 to ptr
  %36 = load i64, ptr %35, align 8
  %37 = and i64 %36, 30064771072
  %.not48 = icmp eq i64 %37, 4294967296
  br i1 %.not48, label %38, label %43

38:                                               ; preds = %32
  %39 = getelementptr inbounds nuw i8, ptr %35, i64 48
  %40 = load ptr, ptr %39, align 8
  %41 = icmp eq ptr %40, null
  br i1 %41, label %.sink.split, label %42

42:                                               ; preds = %38
  %.not49 = icmp eq ptr %40, %.04055
  br i1 %.not49, label %43, label %.sink.split

.sink.split:                                      ; preds = %42, %38
  %.04055.sink = phi ptr [ %.04055, %38 ], [ inttoptr (i64 -1 to ptr), %42 ]
  store ptr %.04055.sink, ptr %39, align 8
  br label %43

43:                                               ; preds = %.sink.split, %42, %32
  %indvars.iv.next68 = add nuw nsw i64 %indvars.iv67, 1
  %exitcond71.not = icmp eq i64 %indvars.iv.next68, %wide.trip.count70
  br i1 %exitcond71.not, label %.loopexit, label %32, !llvm.loop !57

.loopexit:                                        ; preds = %43, %29, %.lr.ph59, %14
  %.1 = phi ptr [ %.04055, %14 ], [ %.056, %.lr.ph59 ], [ %.04055, %29 ], [ %.04055, %43 ]
  %44 = getelementptr inbounds nuw i8, ptr %.056, i64 8
  %45 = load ptr, ptr %44, align 8
  %.not = icmp eq ptr %45, null
  br i1 %.not, label %._crit_edge60.loopexit, label %.lr.ph59, !llvm.loop !58

._crit_edge60.loopexit:                           ; preds = %.loopexit
  %.pre = load i32, ptr %4, align 4
  br label %._crit_edge60

._crit_edge60:                                    ; preds = %._crit_edge60.loopexit, %._crit_edge
  %46 = phi i32 [ %.pre, %._crit_edge60.loopexit ], [ %5, %._crit_edge ]
  %47 = icmp slt i32 %46, %3
  br i1 %47, label %.lr.ph63, label %._crit_edge64

.lr.ph63:                                         ; preds = %._crit_edge60
  %48 = getelementptr inbounds nuw i8, ptr %0, i64 672
  %49 = sext i32 %46 to i64
  %wide.trip.count75 = sext i32 %3 to i64
  br label %50

._crit_edge64:                                    ; preds = %60, %._crit_edge60
  ret void

50:                                               ; preds = %.lr.ph63, %60
  %indvars.iv72 = phi i64 [ %49, %.lr.ph63 ], [ %indvars.iv.next73, %60 ]
  %51 = getelementptr inbounds [512 x %struct.TCGTemp], ptr %48, i64 0, i64 %indvars.iv72
  %52 = load i64, ptr %51, align 8
  %53 = and i64 %52, 30064771072
  %54 = icmp eq i64 %53, 4294967296
  br i1 %54, label %55, label %60

55:                                               ; preds = %50
  %56 = getelementptr inbounds nuw i8, ptr %51, i64 48
  %57 = load ptr, ptr %56, align 8
  %.not47 = icmp eq ptr %57, inttoptr (i64 -1 to ptr)
  br i1 %.not47, label %60, label %58

58:                                               ; preds = %55
  %59 = and i64 %52, -30064771073
  store i64 %59, ptr %51, align 8
  br label %60

60:                                               ; preds = %58, %55, %50
  %indvars.iv.next73 = add nsw i64 %indvars.iv72, 1
  %exitcond76.not = icmp eq i64 %indvars.iv.next73, %wide.trip.count75
  br i1 %exitcond76.not, label %._crit_edge64, label %50, !llvm.loop !59
}